#include <math.h>
#include <stdio.h>
#include <stdlib.h>
#include <string.h>

void main()
{   char a[10],b[3],c,max;
int j,t,l;
	
	while(scanf("%s",a)!=EOF)
{
	scanf("%s",b);
	l=strlen(a);
	max=a[0];
	for(j=0;j<=l-1;j++)
	{ 
	if((int)a[j]>(int)max)
	{max=a[j];
	t=j;}
	}
	for(j=0;j<=t;j++)
		printf("%c",a[j]);
	printf("%s",b);
	for(j=t+1;j<=l-1;j++)
		printf("%c",a[j]);
	printf("\n");}
	while((c=getchar())!=EOF);
}



	
